target datalayout = "e-m:e-p270:32:32-p271:32:32-p272:64:64-i64:64-i128:128-f80:128-n8:16:32:64-S128"
target triple = "x86_64-pc-linux-gnu"

%"class.std::__cxx11::basic_string" = type { %"struct.std::__cxx11::basic_string<char>::_Alloc_hider", i64, %union.anon }
%"struct.std::__cxx11::basic_string<char>::_Alloc_hider" = type { ptr }
%union.anon = type { i64, [8 x i8] }

@_ZN5ZXing4OneDL8ALPHABETE = internal constant [49 x i8] c"0123456789ABCDEFGHIJKLMNOPQRSTUVWXYZ-. $/+%abcd*\00", align 16

; Function Attrs: mustprogress nounwind uwtable
define linkonce_odr noundef i32 @_ZN5ZXing11narrow_castIilEET_OT0_(ptr noundef nonnull align 8 dereferenceable(8) %0) #4 comdat {
  %2 = alloca ptr, align 8
  store ptr %0, ptr %2, align 8, !tbaa !153
  %3 = load ptr, ptr %2, align 8, !tbaa !153
  %4 = load i64, ptr %3, align 8, !tbaa !73
  %5 = trunc i64 %4 to i32
  ret i32 %5
}

; Function Attrs: mustprogress nounwind uwtable
define linkonce_odr noundef ptr @_ZNKSt7__cxx1112basic_stringIcSt11char_traitsIcESaIcEE7_M_dataEv(ptr noundef nonnull align 8 dereferenceable(32) %0) #4 comdat align 2 {
  %2 = alloca ptr, align 8
  store ptr %0, ptr %2, align 8, !tbaa !71
  %3 = load ptr, ptr %2, align 8
  %4 = getelementptr inbounds nuw %"class.std::__cxx11::basic_string", ptr %3, i32 0, i32 0
  %5 = getelementptr inbounds nuw %"struct.std::__cxx11::basic_string<char>::_Alloc_hider", ptr %4, i32 0, i32 0
  %6 = load ptr, ptr %5, align 8, !tbaa !152
  ret ptr %6
}

; Function Attrs: inlinehint mustprogress nounwind uwtable
define linkonce_odr noundef i32 @_ZN5ZXing7IndexOfEPKcc(ptr noundef %0, i8 noundef signext %1) #5 comdat {
  %3 = alloca ptr, align 8
  %4 = alloca i8, align 1
  %5 = alloca ptr, align 8
  %6 = alloca i64, align 8
  store ptr %0, ptr %3, align 8, !tbaa !74
  store i8 %1, ptr %4, align 1, !tbaa !17
  call void @llvm.lifetime.start.p0(i64 8, ptr %5) #19
  %7 = load ptr, ptr %3, align 8, !tbaa !74
  %8 = load i8, ptr %4, align 1, !tbaa !17
  %9 = sext i8 %8 to i32
  %10 = call noundef ptr @strchr(ptr noundef %7, i32 noundef %9) #24
  store ptr %10, ptr %5, align 8, !tbaa !74
  %11 = load ptr, ptr %5, align 8, !tbaa !74
  %12 = icmp ne ptr %11, null
  call void @llvm.lifetime.start.p0(i64 8, ptr %6) #19
  br i1 %12, label %13, label %20

13:                                               ; preds = %2
  %14 = load ptr, ptr %5, align 8, !tbaa !74
  %15 = load ptr, ptr %3, align 8, !tbaa !74
  %16 = ptrtoint ptr %14 to i64
  %17 = ptrtoint ptr %15 to i64
  %18 = sub i64 %16, %17
  store i64 %18, ptr %6, align 8, !tbaa !73
  %19 = call noundef i32 @_ZN5ZXing11narrow_castIilEET_OT0_(ptr noundef nonnull align 8 dereferenceable(8) %6) #19
  br label %21

20:                                               ; preds = %2
  br label %21

21:                                               ; preds = %20, %13
  %22 = phi i32 [ %19, %13 ], [ -1, %20 ]
  call void @llvm.lifetime.end.p0(i64 8, ptr %6) #19
  call void @llvm.lifetime.end.p0(i64 8, ptr %5) #19
  ret i32 %22
}

; Function Attrs: mustprogress nounwind uwtable
define linkonce_odr noundef nonnull align 1 dereferenceable(1) ptr @_ZNKSt7__cxx1112basic_stringIcSt11char_traitsIcESaIcEEixEm(ptr noundef nonnull align 8 dereferenceable(32) %0, i64 noundef %1) #4 comdat align 2 {
  %3 = alloca ptr, align 8
  %4 = alloca i64, align 8
  store ptr %0, ptr %3, align 8, !tbaa !71
  store i64 %1, ptr %4, align 8, !tbaa !73
  %5 = load ptr, ptr %3, align 8
  br label %6

6:                                                ; preds = %2
  br label %7

7:                                                ; preds = %6
  br label %8

8:                                                ; preds = %7
  %9 = call noundef ptr @_ZNKSt7__cxx1112basic_stringIcSt11char_traitsIcESaIcEE7_M_dataEv(ptr noundef nonnull align 8 dereferenceable(32) %5)
  %10 = load i64, ptr %4, align 8, !tbaa !73
  %11 = getelementptr inbounds nuw i8, ptr %9, i64 %10
  ret ptr %11
}

; Function Attrs: mustprogress nounwind uwtable
define linkonce_odr noundef i32 @_ZN5ZXing11narrow_castIimEET_OT0_(ptr noundef nonnull align 8 dereferenceable(8) %0) #4 comdat {
  %2 = alloca ptr, align 8
  store ptr %0, ptr %2, align 8, !tbaa !153
  %3 = load ptr, ptr %2, align 8, !tbaa !153
  %4 = load i64, ptr %3, align 8, !tbaa !73
  %5 = trunc i64 %4 to i32
  ret i32 %5
}

; Function Attrs: mustprogress nounwind uwtable
define linkonce_odr noundef i64 @_ZNKSt7__cxx1112basic_stringIcSt11char_traitsIcESaIcEE4sizeEv(ptr noundef nonnull align 8 dereferenceable(32) %0) #4 comdat align 2 {
  %2 = alloca ptr, align 8
  store ptr %0, ptr %2, align 8, !tbaa !71
  %3 = load ptr, ptr %2, align 8
  %4 = getelementptr inbounds nuw %"class.std::__cxx11::basic_string", ptr %3, i32 0, i32 1
  %5 = load i64, ptr %4, align 8, !tbaa !87
  ret i64 %5
}

; Function Attrs: mustprogress uwtable
define internal noundef zeroext i1 @_ZN5ZXing4OneDL16CheckOneChecksumERKNSt7__cxx1112basic_stringIcSt11char_traitsIcESaIcEEEii(ptr noundef nonnull align 8 dereferenceable(32) %0, i32 noundef %1, i32 noundef %2) #0 {
  %4 = alloca ptr, align 8
  %5 = alloca i32, align 4
  %6 = alloca i32, align 4
  %7 = alloca i32, align 4
  %8 = alloca i32, align 4
  %9 = alloca i32, align 4
  store ptr %0, ptr %4, align 8, !tbaa !71
  store i32 %1, ptr %5, align 4, !tbaa !8
  store i32 %2, ptr %6, align 4, !tbaa !8
  call void @llvm.lifetime.start.p0(i64 4, ptr %7) #19
  store i32 1, ptr %7, align 4, !tbaa !8
  call void @llvm.lifetime.start.p0(i64 4, ptr %8) #19
  store i32 0, ptr %8, align 4, !tbaa !8
  call void @llvm.lifetime.start.p0(i64 4, ptr %9) #19
  %10 = load i32, ptr %5, align 4, !tbaa !8
  %11 = sub nsw i32 %10, 1
  store i32 %11, ptr %9, align 4, !tbaa !8
  br label %12

12:                                               ; preds = %33, %3
  %13 = load i32, ptr %9, align 4, !tbaa !8
  %14 = icmp sge i32 %13, 0
  br i1 %14, label %16, label %15

15:                                               ; preds = %12
  call void @llvm.lifetime.end.p0(i64 4, ptr %9) #19
  br label %36

16:                                               ; preds = %12
  %17 = load i32, ptr %7, align 4, !tbaa !8
  %18 = load ptr, ptr %4, align 8, !tbaa !71
  %19 = load i32, ptr %9, align 4, !tbaa !8
  %20 = sext i32 %19 to i64
  %21 = call noundef nonnull align 1 dereferenceable(1) ptr @_ZNKSt7__cxx1112basic_stringIcSt11char_traitsIcESaIcEEixEm(ptr noundef nonnull align 8 dereferenceable(32) %18, i64 noundef %20) #19
  %22 = load i8, ptr %21, align 1, !tbaa !17
  %23 = call noundef i32 @_ZN5ZXing7IndexOfEPKcc(ptr noundef @_ZN5ZXing4OneDL8ALPHABETE, i8 noundef signext %22)
  %24 = mul nsw i32 %17, %23
  %25 = load i32, ptr %8, align 4, !tbaa !8
  %26 = add nsw i32 %25, %24
  store i32 %26, ptr %8, align 4, !tbaa !8
  %27 = load i32, ptr %7, align 4, !tbaa !8
  %28 = add nsw i32 %27, 1
  store i32 %28, ptr %7, align 4, !tbaa !8
  %29 = load i32, ptr %6, align 4, !tbaa !8
  %30 = icmp sgt i32 %28, %29
  br i1 %30, label %31, label %32

31:                                               ; preds = %16
  store i32 1, ptr %7, align 4, !tbaa !8
  br label %32

32:                                               ; preds = %31, %16
  br label %33

33:                                               ; preds = %32
  %34 = load i32, ptr %9, align 4, !tbaa !8
  %35 = add nsw i32 %34, -1
  store i32 %35, ptr %9, align 4, !tbaa !8
  br label %12, !llvm.loop !155

36:                                               ; preds = %15
  %37 = load ptr, ptr %4, align 8, !tbaa !71
  %38 = load i32, ptr %5, align 4, !tbaa !8
  %39 = sext i32 %38 to i64
  %40 = call noundef nonnull align 1 dereferenceable(1) ptr @_ZNKSt7__cxx1112basic_stringIcSt11char_traitsIcESaIcEEixEm(ptr noundef nonnull align 8 dereferenceable(32) %37, i64 noundef %39) #19
  %41 = load i8, ptr %40, align 1, !tbaa !17
  %42 = sext i8 %41 to i32
  %43 = load i32, ptr %8, align 4, !tbaa !8
  %44 = srem i32 %43, 47
  %45 = sext i32 %44 to i64
  %46 = getelementptr inbounds [49 x i8], ptr @_ZN5ZXing4OneDL8ALPHABETE, i64 0, i64 %45
  %47 = load i8, ptr %46, align 1, !tbaa !17
  %48 = sext i8 %47 to i32
  %49 = icmp eq i32 %42, %48
  call void @llvm.lifetime.end.p0(i64 4, ptr %8) #19
  call void @llvm.lifetime.end.p0(i64 4, ptr %7) #19
  ret i1 %49
}

; Function Attrs: mustprogress nounwind uwtable
define linkonce_odr noundef i32 @_ZN5ZXing4SizeINSt7__cxx1112basic_stringIcSt11char_traitsIcESaIcEEEEEDTcmcldtfp_4sizeEcvi_EERKT_(ptr noundef nonnull align 8 dereferenceable(32) %0) #4 comdat {
  %2 = alloca ptr, align 8
  %3 = alloca i64, align 8
  store ptr %0, ptr %2, align 8, !tbaa !71
  call void @llvm.lifetime.start.p0(i64 8, ptr %3) #19
  %4 = load ptr, ptr %2, align 8, !tbaa !71
  %5 = call noundef i64 @_ZNKSt7__cxx1112basic_stringIcSt11char_traitsIcESaIcEE4sizeEv(ptr noundef nonnull align 8 dereferenceable(32) %4) #19
  store i64 %5, ptr %3, align 8, !tbaa !73
  %6 = call noundef i32 @_ZN5ZXing11narrow_castIimEET_OT0_(ptr noundef nonnull align 8 dereferenceable(8) %3) #19
  call void @llvm.lifetime.end.p0(i64 8, ptr %3) #19
  ret i32 %6
}

; Function Attrs: mustprogress uwtable
define internal noundef zeroext i1 @_ZN5ZXing4OneDL14CheckChecksumsERKNSt7__cxx1112basic_stringIcSt11char_traitsIcESaIcEEE(ptr noundef nonnull align 8 dereferenceable(32) %0) #0 {
  %2 = alloca ptr, align 8
  %3 = alloca i32, align 4
  store ptr %0, ptr %2, align 8, !tbaa !71
  call void @llvm.lifetime.start.p0(i64 4, ptr %3) #19
  %4 = load ptr, ptr %2, align 8, !tbaa !71
  %5 = call noundef i32 @_ZN5ZXing4SizeINSt7__cxx1112basic_stringIcSt11char_traitsIcESaIcEEEEEDTcmcldtfp_4sizeEcvi_EERKT_(ptr noundef nonnull align 8 dereferenceable(32) %4)
  store i32 %5, ptr %3, align 4, !tbaa !8
  %6 = load ptr, ptr %2, align 8, !tbaa !71
  %7 = load i32, ptr %3, align 4, !tbaa !8
  %8 = sub nsw i32 %7, 2
  %9 = call noundef zeroext i1 @_ZN5ZXing4OneDL16CheckOneChecksumERKNSt7__cxx1112basic_stringIcSt11char_traitsIcESaIcEEEii(ptr noundef nonnull align 8 dereferenceable(32) %6, i32 noundef %8, i32 noundef 20)
  br i1 %9, label %10, label %15

10:                                               ; preds = %1
  %11 = load ptr, ptr %2, align 8, !tbaa !71
  %12 = load i32, ptr %3, align 4, !tbaa !8
  %13 = sub nsw i32 %12, 1
  %14 = call noundef zeroext i1 @_ZN5ZXing4OneDL16CheckOneChecksumERKNSt7__cxx1112basic_stringIcSt11char_traitsIcESaIcEEEii(ptr noundef nonnull align 8 dereferenceable(32) %11, i32 noundef %13, i32 noundef 15)
  br label %15

15:                                               ; preds = %10, %1
  %16 = phi i1 [ false, %1 ], [ %14, %10 ]
  call void @llvm.lifetime.end.p0(i64 4, ptr %3) #19
  ret i1 %16
}