; Function Attrs: mustprogress nofree nounwind willreturn memory(argmem: read) uwtable
define internal fastcc noundef zeroext i1 @_ZN5ZXing4OneDL14CheckChecksumsERKNSt7__cxx1112basic_stringIcSt11char_traitsIcESaIcEEE(ptr readonly captures(none) %.0.val, i64 %.8.val) unnamed_addr #4 {
  %1 = trunc i64 %.8.val to i32
  %2 = add nsw i32 %1, -2
  %3 = icmp sgt i32 %1, 2
  br i1 %3, label %.lr.ph.preheader.i, label %_ZN5ZXing4OneDL16CheckOneChecksumERKNSt7__cxx1112basic_stringIcSt11char_traitsIcESaIcEEEii.exit

.lr.ph.preheader.i:                               ; preds = %0
  %4 = zext nneg i32 %2 to i64
  br label %.lr.ph.i

._crit_edge.loopexit.i:                           ; preds = %.lr.ph.i
  %5 = srem i32 %15, 47
  %6 = sext i32 %5 to i64
  br label %_ZN5ZXing4OneDL16CheckOneChecksumERKNSt7__cxx1112basic_stringIcSt11char_traitsIcESaIcEEEii.exit

.lr.ph.i:                                         ; preds = %.lr.ph.i, %.lr.ph.preheader.i
  %indvars.iv.i = phi i64 [ %4, %.lr.ph.preheader.i ], [ %indvars.iv.next.i, %.lr.ph.i ]
  %.0112.i = phi i32 [ 0, %.lr.ph.preheader.i ], [ %15, %.lr.ph.i ]
  %.0121.i = phi i32 [ 1, %.lr.ph.preheader.i ], [ %spec.store.select.i, %.lr.ph.i ]
  %indvars.iv.next.i = add nsw i64 %indvars.iv.i, -1
  %7 = getelementptr inbounds nuw i8, ptr %.0.val, i64 %indvars.iv.next.i
  %8 = load i8, ptr %7, align 1, !tbaa !35
  %9 = sext i8 %8 to i32
  %memchr.i = tail call ptr @memchr(ptr noundef nonnull dereferenceable(1) @_ZN5ZXing4OneDL8ALPHABETE, i32 %9, i64 49)
  %.not.i.i = icmp eq ptr %memchr.i, null
  %10 = ptrtoint ptr %memchr.i to i64
  %11 = trunc i64 %10 to i32
  %12 = sub i32 %11, ptrtoint (ptr @_ZN5ZXing4OneDL8ALPHABETE to i32)
  %13 = select i1 %.not.i.i, i32 -1, i32 %12
  %14 = mul nsw i32 %13, %.0121.i
  %15 = add nsw i32 %14, %.0112.i
  %16 = add nsw i32 %.0121.i, 1
  %.not.i = icmp slt i32 %.0121.i, 20
  %spec.store.select.i = select i1 %.not.i, i32 %16, i32 1
  %17 = icmp samesign ugt i64 %indvars.iv.i, 1
  br i1 %17, label %.lr.ph.i, label %._crit_edge.loopexit.i, !llvm.loop !70

_ZN5ZXing4OneDL16CheckOneChecksumERKNSt7__cxx1112basic_stringIcSt11char_traitsIcESaIcEEEii.exit: ; preds = %0, %._crit_edge.loopexit.i
  %.011.lcssa.i = phi i64 [ 0, %0 ], [ %6, %._crit_edge.loopexit.i ]
  %18 = sext i32 %2 to i64
  %19 = getelementptr inbounds nuw i8, ptr %.0.val, i64 %18
  %20 = load i8, ptr %19, align 1, !tbaa !35
  %21 = getelementptr inbounds [49 x i8], ptr @_ZN5ZXing4OneDL8ALPHABETE, i64 0, i64 %.011.lcssa.i
  %22 = load i8, ptr %21, align 1, !tbaa !35
  %23 = icmp eq i8 %20, %22
  br i1 %23, label %24, label %47

24:                                               ; preds = %_ZN5ZXing4OneDL16CheckOneChecksumERKNSt7__cxx1112basic_stringIcSt11char_traitsIcESaIcEEEii.exit
  %25 = add nsw i32 %1, -1
  %26 = icmp sgt i32 %1, 1
  br i1 %26, label %.lr.ph.preheader.i6, label %_ZN5ZXing4OneDL16CheckOneChecksumERKNSt7__cxx1112basic_stringIcSt11char_traitsIcESaIcEEEii.exit17

.lr.ph.preheader.i6:                              ; preds = %24
  %27 = zext nneg i32 %25 to i64
  br label %.lr.ph.i7

._crit_edge.loopexit.i16:                         ; preds = %.lr.ph.i7
  %28 = srem i32 %38, 47
  %29 = sext i32 %28 to i64
  br label %_ZN5ZXing4OneDL16CheckOneChecksumERKNSt7__cxx1112basic_stringIcSt11char_traitsIcESaIcEEEii.exit17

.lr.ph.i7:                                        ; preds = %.lr.ph.i7, %.lr.ph.preheader.i6
  %indvars.iv.i8 = phi i64 [ %27, %.lr.ph.preheader.i6 ], [ %indvars.iv.next.i11, %.lr.ph.i7 ]
  %.0112.i9 = phi i32 [ 0, %.lr.ph.preheader.i6 ], [ %38, %.lr.ph.i7 ]
  %.0121.i10 = phi i32 [ 1, %.lr.ph.preheader.i6 ], [ %spec.store.select.i15, %.lr.ph.i7 ]
  %indvars.iv.next.i11 = add nsw i64 %indvars.iv.i8, -1
  %30 = getelementptr inbounds nuw i8, ptr %.0.val, i64 %indvars.iv.next.i11
  %31 = load i8, ptr %30, align 1, !tbaa !35
  %32 = sext i8 %31 to i32
  %memchr.i12 = tail call ptr @memchr(ptr noundef nonnull dereferenceable(1) @_ZN5ZXing4OneDL8ALPHABETE, i32 %32, i64 49)
  %.not.i.i13 = icmp eq ptr %memchr.i12, null
  %33 = ptrtoint ptr %memchr.i12 to i64
  %34 = trunc i64 %33 to i32
  %35 = sub i32 %34, ptrtoint (ptr @_ZN5ZXing4OneDL8ALPHABETE to i32)
  %36 = select i1 %.not.i.i13, i32 -1, i32 %35
  %37 = mul nsw i32 %36, %.0121.i10
  %38 = add nsw i32 %37, %.0112.i9
  %39 = add nsw i32 %.0121.i10, 1
  %.not.i14 = icmp slt i32 %.0121.i10, 15
  %spec.store.select.i15 = select i1 %.not.i14, i32 %39, i32 1
  %40 = icmp samesign ugt i64 %indvars.iv.i8, 1
  br i1 %40, label %.lr.ph.i7, label %._crit_edge.loopexit.i16, !llvm.loop !70

_ZN5ZXing4OneDL16CheckOneChecksumERKNSt7__cxx1112basic_stringIcSt11char_traitsIcESaIcEEEii.exit17: ; preds = %24, %._crit_edge.loopexit.i16
  %.011.lcssa.i5 = phi i64 [ 0, %24 ], [ %29, %._crit_edge.loopexit.i16 ]
  %41 = sext i32 %25 to i64
  %42 = getelementptr inbounds nuw i8, ptr %.0.val, i64 %41
  %43 = load i8, ptr %42, align 1, !tbaa !35
  %44 = getelementptr inbounds [49 x i8], ptr @_ZN5ZXing4OneDL8ALPHABETE, i64 0, i64 %.011.lcssa.i5
  %45 = load i8, ptr %44, align 1, !tbaa !35
  %46 = icmp eq i8 %43, %45
  br label %47

47:                                               ; preds = %_ZN5ZXing4OneDL16CheckOneChecksumERKNSt7__cxx1112basic_stringIcSt11char_traitsIcESaIcEEEii.exit17, %_ZN5ZXing4OneDL16CheckOneChecksumERKNSt7__cxx1112basic_stringIcSt11char_traitsIcESaIcEEEii.exit
  %48 = phi i1 [ false, %_ZN5ZXing4OneDL16CheckOneChecksumERKNSt7__cxx1112basic_stringIcSt11char_traitsIcESaIcEEEii.exit ], [ %46, %_ZN5ZXing4OneDL16CheckOneChecksumERKNSt7__cxx1112basic_stringIcSt11char_traitsIcESaIcEEEii.exit17 ]
  ret i1 %48
}